target datalayout = "e-m:e-p270:32:32-p271:32:32-p272:64:64-i64:64-i128:128-f80:128-n8:16:32:64-S128"
target triple = "x86_64-pc-linux-gnu"

%struct.PacketOutputStream = type { ptr, i32, ptr, %struct.PacketData, i32, i8, %struct.jdwpPacket, [300 x i8], ptr }
%struct.PacketData = type { i32, ptr, ptr }
%struct.jdwpPacket = type { %union.anon }
%union.anon = type { %struct.jdwpCmdPacket }
%struct.jdwpCmdPacket = type { i32, i32, i8, i8, i8, ptr }

; Function Attrs: nounwind uwtable
define internal zeroext i16 @writeBytes(ptr noundef %0, ptr noundef %1, i32 noundef %2) #0 {
  %4 = alloca i16, align 2
  %5 = alloca ptr, align 8
  %6 = alloca ptr, align 8
  %7 = alloca i32, align 4
  %8 = alloca ptr, align 8
  %9 = alloca i32, align 4
  %10 = alloca i32, align 4
  %11 = alloca ptr, align 8
  %12 = alloca ptr, align 8
  store ptr %0, ptr %5, align 8
  store ptr %1, ptr %6, align 8
  store i32 %2, ptr %7, align 4
  %13 = load ptr, ptr %6, align 8
  store ptr %13, ptr %8, align 8
  %14 = load ptr, ptr %5, align 8
  %15 = getelementptr inbounds %struct.PacketOutputStream, ptr %14, i32 0, i32 4
  %16 = load i32, ptr %15, align 8
  %17 = icmp ne i32 %16, 0
  br i1 %17, label %18, label %23

18:                                               ; preds = %3
  %19 = load ptr, ptr %5, align 8
  %20 = getelementptr inbounds %struct.PacketOutputStream, ptr %19, i32 0, i32 4
  %21 = load i32, ptr %20, align 8
  %22 = trunc i32 %21 to i16
  store i16 %22, ptr %4, align 2
  br label %137

23:                                               ; preds = %3
  br label %24

24:                                               ; preds = %103, %23
  %25 = load i32, ptr %7, align 4
  %26 = icmp sgt i32 %25, 0
  br i1 %26, label %27, label %136

27:                                               ; preds = %24
  %28 = load ptr, ptr %5, align 8
  %29 = getelementptr inbounds %struct.PacketOutputStream, ptr %28, i32 0, i32 1
  %30 = load i32, ptr %29, align 8
  %31 = icmp eq i32 %30, 0
  br i1 %31, label %32, label %91

32:                                               ; preds = %27
  %33 = load ptr, ptr %5, align 8
  %34 = getelementptr inbounds %struct.PacketOutputStream, ptr %33, i32 0, i32 2
  %35 = load ptr, ptr %34, align 8
  %36 = getelementptr inbounds %struct.PacketData, ptr %35, i32 0, i32 0
  %37 = load i32, ptr %36, align 8
  %38 = mul nsw i32 2, %37
  %39 = icmp slt i32 %38, 10000
  br i1 %39, label %40, label %47

40:                                               ; preds = %32
  %41 = load ptr, ptr %5, align 8
  %42 = getelementptr inbounds %struct.PacketOutputStream, ptr %41, i32 0, i32 2
  %43 = load ptr, ptr %42, align 8
  %44 = getelementptr inbounds %struct.PacketData, ptr %43, i32 0, i32 0
  %45 = load i32, ptr %44, align 8
  %46 = mul nsw i32 2, %45
  br label %48

47:                                               ; preds = %32
  br label %48

48:                                               ; preds = %47, %40
  %49 = phi i32 [ %46, %40 ], [ 10000, %47 ]
  store i32 %49, ptr %10, align 4
  %50 = load i32, ptr %10, align 4
  %51 = call ptr @jvmtiAllocate(i32 noundef %50)
  store ptr %51, ptr %11, align 8
  %52 = call ptr @jvmtiAllocate(i32 noundef 24)
  store ptr %52, ptr %12, align 8
  %53 = load ptr, ptr %11, align 8
  %54 = icmp eq ptr %53, null
  br i1 %54, label %58, label %55

55:                                               ; preds = %48
  %56 = load ptr, ptr %12, align 8
  %57 = icmp eq ptr %56, null
  br i1 %57, label %58, label %67

58:                                               ; preds = %55, %48
  %59 = load ptr, ptr %11, align 8
  call void @jvmtiDeallocate(ptr noundef %59)
  %60 = load ptr, ptr %12, align 8
  call void @jvmtiDeallocate(ptr noundef %60)
  %61 = load ptr, ptr %5, align 8
  %62 = getelementptr inbounds %struct.PacketOutputStream, ptr %61, i32 0, i32 4
  store i32 110, ptr %62, align 8
  %63 = load ptr, ptr %5, align 8
  %64 = getelementptr inbounds %struct.PacketOutputStream, ptr %63, i32 0, i32 4
  %65 = load i32, ptr %64, align 8
  %66 = trunc i32 %65 to i16
  store i16 %66, ptr %4, align 2
  br label %137

67:                                               ; preds = %55
  %68 = load ptr, ptr %12, align 8
  %69 = getelementptr inbounds %struct.PacketData, ptr %68, i32 0, i32 0
  store i32 0, ptr %69, align 8
  %70 = load ptr, ptr %11, align 8
  %71 = load ptr, ptr %12, align 8
  %72 = getelementptr inbounds %struct.PacketData, ptr %71, i32 0, i32 1
  store ptr %70, ptr %72, align 8
  %73 = load ptr, ptr %12, align 8
  %74 = getelementptr inbounds %struct.PacketData, ptr %73, i32 0, i32 2
  store ptr null, ptr %74, align 8
  %75 = load ptr, ptr %12, align 8
  %76 = load ptr, ptr %5, align 8
  %77 = getelementptr inbounds %struct.PacketOutputStream, ptr %76, i32 0, i32 2
  %78 = load ptr, ptr %77, align 8
  %79 = getelementptr inbounds %struct.PacketData, ptr %78, i32 0, i32 2
  store ptr %75, ptr %79, align 8
  %80 = load ptr, ptr %12, align 8
  %81 = load ptr, ptr %5, align 8
  %82 = getelementptr inbounds %struct.PacketOutputStream, ptr %81, i32 0, i32 2
  store ptr %80, ptr %82, align 8
  %83 = load ptr, ptr %12, align 8
  %84 = getelementptr inbounds %struct.PacketData, ptr %83, i32 0, i32 1
  %85 = load ptr, ptr %84, align 8
  %86 = load ptr, ptr %5, align 8
  %87 = getelementptr inbounds %struct.PacketOutputStream, ptr %86, i32 0, i32 0
  store ptr %85, ptr %87, align 8
  %88 = load i32, ptr %10, align 4
  %89 = load ptr, ptr %5, align 8
  %90 = getelementptr inbounds %struct.PacketOutputStream, ptr %89, i32 0, i32 1
  store i32 %88, ptr %90, align 8
  br label %91

91:                                               ; preds = %67, %27
  %92 = load i32, ptr %7, align 4
  %93 = load ptr, ptr %5, align 8
  %94 = getelementptr inbounds %struct.PacketOutputStream, ptr %93, i32 0, i32 1
  %95 = load i32, ptr %94, align 8
  %96 = icmp slt i32 %92, %95
  br i1 %96, label %97, label %99

97:                                               ; preds = %91
  %98 = load i32, ptr %7, align 4
  br label %103

99:                                               ; preds = %91
  %100 = load ptr, ptr %5, align 8
  %101 = getelementptr inbounds %struct.PacketOutputStream, ptr %100, i32 0, i32 1
  %102 = load i32, ptr %101, align 8
  br label %103

103:                                              ; preds = %99, %97
  %104 = phi i32 [ %98, %97 ], [ %102, %99 ]
  store i32 %104, ptr %9, align 4
  %105 = load ptr, ptr %5, align 8
  %106 = getelementptr inbounds %struct.PacketOutputStream, ptr %105, i32 0, i32 0
  %107 = load ptr, ptr %106, align 8
  %108 = load ptr, ptr %8, align 8
  %109 = load i32, ptr %9, align 4
  %110 = sext i32 %109 to i64
  call void @llvm.memcpy.p0.p0.i64(ptr align 1 %107, ptr align 1 %108, i64 %110, i1 false)
  %111 = load i32, ptr %9, align 4
  %112 = load ptr, ptr %5, align 8
  %113 = getelementptr inbounds %struct.PacketOutputStream, ptr %112, i32 0, i32 0
  %114 = load ptr, ptr %113, align 8
  %115 = sext i32 %111 to i64
  %116 = getelementptr inbounds i8, ptr %114, i64 %115
  store ptr %116, ptr %113, align 8
  %117 = load i32, ptr %9, align 4
  %118 = load ptr, ptr %5, align 8
  %119 = getelementptr inbounds %struct.PacketOutputStream, ptr %118, i32 0, i32 1
  %120 = load i32, ptr %119, align 8
  %121 = sub nsw i32 %120, %117
  store i32 %121, ptr %119, align 8
  %122 = load i32, ptr %9, align 4
  %123 = load ptr, ptr %5, align 8
  %124 = getelementptr inbounds %struct.PacketOutputStream, ptr %123, i32 0, i32 2
  %125 = load ptr, ptr %124, align 8
  %126 = getelementptr inbounds %struct.PacketData, ptr %125, i32 0, i32 0
  %127 = load i32, ptr %126, align 8
  %128 = add nsw i32 %127, %122
  store i32 %128, ptr %126, align 8
  %129 = load i32, ptr %9, align 4
  %130 = load i32, ptr %7, align 4
  %131 = sub nsw i32 %130, %129
  store i32 %131, ptr %7, align 4
  %132 = load i32, ptr %9, align 4
  %133 = load ptr, ptr %8, align 8
  %134 = sext i32 %132 to i64
  %135 = getelementptr inbounds i8, ptr %133, i64 %134
  store ptr %135, ptr %8, align 8
  br label %24, !llvm.loop !6

136:                                              ; preds = %24
  store i16 0, ptr %4, align 2
  br label %137

137:                                              ; preds = %136, %58, %18
  %138 = load i16, ptr %4, align 2
  ret i16 %138
}