; Function Attrs: nounwind uwtable
define internal fastcc zeroext i16 @writeBytes(ptr nocapture noundef %0, ptr nocapture noundef readonly %1, i32 noundef %2) unnamed_addr #0 {
  %4 = getelementptr inbounds i8, ptr %0, i64 48
  %5 = load i32, ptr %4, align 8
  %.not = icmp eq i32 %5, 0
  br i1 %.not, label %.preheader, label %9

.preheader:                                       ; preds = %3
  %6 = icmp sgt i32 %2, 0
  br i1 %6, label %.lr.ph, label %.loopexit

.lr.ph:                                           ; preds = %.preheader
  %7 = getelementptr inbounds i8, ptr %0, i64 8
  %8 = getelementptr inbounds i8, ptr %0, i64 16
  br label %11

9:                                                ; preds = %3
  %10 = trunc i32 %5 to i16
  br label %.loopexit

11:                                               ; preds = %.lr.ph, %30
  %.04453 = phi i32 [ %2, %.lr.ph ], [ %41, %30 ]
  %.04552 = phi ptr [ %1, %.lr.ph ], [ %42, %30 ]
  %12 = load i32, ptr %7, align 8
  %13 = icmp eq i32 %12, 0
  br i1 %13, label %14, label %._crit_edge

._crit_edge:                                      ; preds = %11
  %.pre = load ptr, ptr %0, align 8
  br label %30

14:                                               ; preds = %11
  %15 = load ptr, ptr %8, align 8
  %16 = load i32, ptr %15, align 8
  %17 = icmp slt i32 %16, 5000
  %18 = shl nsw i32 %16, 1
  %spec.select = select i1 %17, i32 %18, i32 10000
  %19 = tail call ptr @jvmtiAllocate(i32 noundef %spec.select) #7
  %20 = tail call ptr @jvmtiAllocate(i32 noundef 24) #7
  %21 = icmp eq ptr %19, null
  %22 = icmp eq ptr %20, null
  %or.cond = select i1 %21, i1 true, i1 %22
  br i1 %or.cond, label %23, label %24

23:                                               ; preds = %14
  tail call void @jvmtiDeallocate(ptr noundef %19) #7
  tail call void @jvmtiDeallocate(ptr noundef %20) #7
  store i32 110, ptr %4, align 8
  br label %.loopexit

24:                                               ; preds = %14
  store i32 0, ptr %20, align 8
  %25 = getelementptr inbounds i8, ptr %20, i64 8
  store ptr %19, ptr %25, align 8
  %26 = getelementptr inbounds i8, ptr %20, i64 16
  store ptr null, ptr %26, align 8
  %27 = load ptr, ptr %8, align 8
  %28 = getelementptr inbounds i8, ptr %27, i64 16
  store ptr %20, ptr %28, align 8
  store ptr %20, ptr %8, align 8
  %29 = load ptr, ptr %25, align 8
  store ptr %29, ptr %0, align 8
  store i32 %spec.select, ptr %7, align 8
  br label %30

30:                                               ; preds = %._crit_edge, %24
  %31 = phi ptr [ %29, %24 ], [ %.pre, %._crit_edge ]
  %32 = phi i32 [ %spec.select, %24 ], [ %12, %._crit_edge ]
  %.044. = tail call i32 @llvm.smin.i32(i32 %.04453, i32 %32)
  %33 = sext i32 %.044. to i64
  tail call void @llvm.memcpy.p0.p0.i64(ptr align 1 %31, ptr align 1 %.04552, i64 %33, i1 false)
  %34 = load ptr, ptr %0, align 8
  %35 = getelementptr inbounds i8, ptr %34, i64 %33
  store ptr %35, ptr %0, align 8
  %36 = load i32, ptr %7, align 8
  %37 = sub nsw i32 %36, %.044.
  store i32 %37, ptr %7, align 8
  %38 = load ptr, ptr %8, align 8
  %39 = load i32, ptr %38, align 8
  %40 = add nsw i32 %39, %.044.
  store i32 %40, ptr %38, align 8
  %41 = sub nsw i32 %.04453, %.044.
  %42 = getelementptr inbounds i8, ptr %.04552, i64 %33
  %43 = icmp sgt i32 %41, 0
  br i1 %43, label %11, label %.loopexit, !llvm.loop !6

.loopexit:                                        ; preds = %30, %.preheader, %23, %9
  %.0 = phi i16 [ %10, %9 ], [ 110, %23 ], [ 0, %.preheader ], [ 0, %30 ]
  ret i16 %.0
}